	.file	"/home/hstroetgen/Dokumente/programming/app_ethernet_led/module_ethernet_hub/src/hub.xc"

	.inline_definition delay_seconds
	.inline_definition delay_milliseconds
	.inline_definition delay_microseconds
	.set ethernetHUB.savedstate,12
	.globl ethernetHUB.savedstate
	.set usage.anon.0,0
	.set usage.anon.1,0
	.set usage.anon.2,0
	.call ethernetHUB,transmitterP2
	.call ethernetHUB,transmitterP1
	.call ethernetHUB,receiverP2
	.call ethernetHUB,receiverP1
	.call ethernetHUB,printstr
	.call transmitterP2,mac_tx_p2_lite
	.call transmitterP2,fetchFrameFromHub
	.call transmitterP1,mac_tx_p1_lite
	.call transmitterP1,fetchFrameFromHub
	.call receiverP2,passFrameToHub
	.call receiverP2,mac_rx_p2_lite
	.call receiverP1,passFrameToHub
	.call receiverP1,mac_rx_p1_lite
	.call usage.anon.2,delay_ticks_longlong
	.call usage.anon.1,delay_ticks_longlong
	.call usage.anon.0,delay_ticks_longlong
	.par transmitterP1,receiverP2,"/home/hstroetgen/Dokumente/programming/app_ethernet_led/module_ethernet_hub/src/hub.xc:85: error: use of `%s' violates parallel usage rules"
	.par transmitterP1,transmitterP2,"/home/hstroetgen/Dokumente/programming/app_ethernet_led/module_ethernet_hub/src/hub.xc:85: error: use of `%s' violates parallel usage rules"
	.par transmitterP1,receiverP1,"/home/hstroetgen/Dokumente/programming/app_ethernet_led/module_ethernet_hub/src/hub.xc:85: error: use of `%s' violates parallel usage rules"
	.par receiverP2,transmitterP2,"/home/hstroetgen/Dokumente/programming/app_ethernet_led/module_ethernet_hub/src/hub.xc:85: error: use of `%s' violates parallel usage rules"
	.par receiverP2,receiverP1,"/home/hstroetgen/Dokumente/programming/app_ethernet_led/module_ethernet_hub/src/hub.xc:85: error: use of `%s' violates parallel usage rules"
	.par transmitterP2,receiverP1,"/home/hstroetgen/Dokumente/programming/app_ethernet_led/module_ethernet_hub/src/hub.xc:85: error: use of `%s' violates parallel usage rules"
	.set usage.anon.0.locnoside, 1
	.set usage.anon.1.locnoside, 1
	.set usage.anon.2.locnoside, 1
	.set usage.anon.0.locnochandec, 1
	.set usage.anon.1.locnochandec, 1
	.set usage.anon.2.locnochandec, 1
	.set receiverP1.locnochandec, 1
	.set receiverP2.locnochandec, 1
	.set transmitterP1.locnochandec, 1
	.set transmitterP2.locnochandec, 1
	.set usage.anon.0.locnoglobalaccess, 1
	.set usage.anon.1.locnoglobalaccess, 1
	.set usage.anon.2.locnoglobalaccess, 1
	.set receiverP1.locnoglobalaccess, 1
	.set receiverP2.locnoglobalaccess, 1
	.set transmitterP1.locnoglobalaccess, 1
	.set transmitterP2.locnoglobalaccess, 1
	.set ethernetHUB.locnoglobalaccess, 1
	.set usage.anon.0.locnointerfaceaccess, 1
	.set usage.anon.1.locnointerfaceaccess, 1
	.set usage.anon.2.locnointerfaceaccess, 1
	.set receiverP1.locnointerfaceaccess, 1
	.set receiverP2.locnointerfaceaccess, 1
	.set transmitterP1.locnointerfaceaccess, 1
	.set transmitterP2.locnointerfaceaccess, 1
	.set ethernetHUB.locnointerfaceaccess, 1
	.set usage.anon.0.locnonotificationselect, 1
	.set usage.anon.1.locnonotificationselect, 1
	.set usage.anon.2.locnonotificationselect, 1
	.set receiverP1.locnonotificationselect, 1
	.set receiverP2.locnonotificationselect, 1
	.set transmitterP1.locnonotificationselect, 1
	.set transmitterP2.locnonotificationselect, 1
	.set ethernetHUB.locnonotificationselect, 1
	.overlay_subgraph_conflict ethernetHUB.task.transmitterP1.0, ethernetHUB.task.receiverP2.1, ethernetHUB.task.transmitterP2.2, ethernetHUB.task.receiverP1.3


	.file	1 "/home/hstroetgen/Dokumente/programming/app_ethernet_led/module_ethernet_hub/src/hub.xc"
	.file	2 "/home/hstroetgen/Dokumente/programming/app_ethernet_led/app_ethernet_led/.build_lite/timer.h"
	.text
.Ltext_begin:
	.section	.dp.data,"awd",@progbits
	.text
	.cc_top receiverP1.function
	.globl	receiverP1
	.align	4
	.type	receiverP1,@function
receiverP1:
.Ltmp8:
	.cfi_startproc
.Lfunc_begin0:
	.loc	1 7 0
.Lxtalabel0:
	entsp 411
.Ltmp9:
	.cfi_def_cfa_offset 1644
.Ltmp10:
	.cfi_offset 15, 0
	.loc	1 6 0 prologue_end
.Ltmp11:
	stw r4, sp[410]
.Ltmp12:
	.cfi_offset 4, -4
	stw r5, sp[409]
.Ltmp13:
	.cfi_offset 5, -8
	stw r6, sp[408]
.Ltmp14:
	.cfi_offset 6, -12
	stw r7, sp[407]
.Ltmp15:
	.cfi_offset 7, -16
	stw r8, sp[406]
.Ltmp16:
	.cfi_offset 8, -20
	stw r9, sp[405]
.Ltmp17:
	.cfi_offset 9, -24
	stw r10, sp[404]
.Ltmp18:
	.cfi_offset 10, -28
	mov r4, r2
.Ltmp19:
	mov r5, r1
.Ltmp20:
	mov r6, r0
.Ltmp21:
	ldc r7, 1600
	ldaw r8, sp[4]
	ldaw r10, sp[3]
.LBB0_1:
.Lxtalabel1:
.Ltmp22:
	.loc	1 16 0
	stw r7, sp[1]
.Ltmp23:
	mov r0, r6
	mov r1, r8
	ldaw r2, sp[2]
	mov r3, r10
.Lxta.call_labels0:
	bl mac_rx_p1_lite
	.loc	1 17 0
	ldw r9, sp[2]
	.loc	1 17 0
	mov r0, r5
	mov r1, r8
	mov r2, r9
	mov r3, r7
.Lxta.call_labels1:
	bl passFrameToHub
	.loc	1 18 0
	mov r0, r4
	mov r1, r8
	mov r2, r9
	mov r3, r7
.Lxta.call_labels2:
	bl passFrameToHub
.Ltmp24:
	.loc	1 10 0
	bu .LBB0_1
.Ltmp25:
.Ltmp26:
	.size	receiverP1, .Ltmp26-receiverP1
.Lfunc_end0:
.Ltmp27:
	.cfi_endproc
.Leh_func_end0:

	.align	4
	.cc_bottom receiverP1.function
	.set	receiverP1.nstackwords,((mac_rx_p1_lite.nstackwords $M passFrameToHub.nstackwords) + 411)
	.globl	receiverP1.nstackwords
	.set	receiverP1.maxcores,mac_rx_p1_lite.maxcores $M passFrameToHub.maxcores $M 1
	.globl	receiverP1.maxcores
	.set	receiverP1.maxtimers,mac_rx_p1_lite.maxtimers $M passFrameToHub.maxtimers $M 0
	.globl	receiverP1.maxtimers
	.set	receiverP1.maxchanends,mac_rx_p1_lite.maxchanends $M passFrameToHub.maxchanends $M 0
	.globl	receiverP1.maxchanends
	.cc_top receiverP2.function
	.globl	receiverP2
	.align	4
	.type	receiverP2,@function
receiverP2:
.Ltmp36:
	.cfi_startproc
.Lfunc_begin1:
	.loc	1 25 0
.Lxtalabel2:
	entsp 411
.Ltmp37:
	.cfi_def_cfa_offset 1644
.Ltmp38:
	.cfi_offset 15, 0
	.loc	1 24 0 prologue_end
.Ltmp39:
	stw r4, sp[410]
.Ltmp40:
	.cfi_offset 4, -4
	stw r5, sp[409]
.Ltmp41:
	.cfi_offset 5, -8
	stw r6, sp[408]
.Ltmp42:
	.cfi_offset 6, -12
	stw r7, sp[407]
.Ltmp43:
	.cfi_offset 7, -16
	stw r8, sp[406]
.Ltmp44:
	.cfi_offset 8, -20
	stw r9, sp[405]
.Ltmp45:
	.cfi_offset 9, -24
	stw r10, sp[404]
.Ltmp46:
	.cfi_offset 10, -28
	mov r4, r2
.Ltmp47:
	mov r5, r1
.Ltmp48:
	mov r6, r0
.Ltmp49:
	ldc r7, 1600
	ldaw r8, sp[4]
	ldaw r10, sp[3]
.LBB1_1:
.Lxtalabel3:
.Ltmp50:
	.loc	1 34 0
	stw r7, sp[1]
.Ltmp51:
	mov r0, r6
	mov r1, r8
	ldaw r2, sp[2]
	mov r3, r10
.Lxta.call_labels3:
	bl mac_rx_p2_lite
	.loc	1 35 0
	ldw r9, sp[2]
	.loc	1 35 0
	mov r0, r5
	mov r1, r8
	mov r2, r9
	mov r3, r7
.Lxta.call_labels4:
	bl passFrameToHub
	.loc	1 36 0
	mov r0, r4
	mov r1, r8
	mov r2, r9
	mov r3, r7
.Lxta.call_labels5:
	bl passFrameToHub
.Ltmp52:
	.loc	1 28 0
	bu .LBB1_1
.Ltmp53:
.Ltmp54:
	.size	receiverP2, .Ltmp54-receiverP2
.Lfunc_end1:
.Ltmp55:
	.cfi_endproc
.Leh_func_end1:

	.align	4
	.cc_bottom receiverP2.function
	.set	receiverP2.nstackwords,((mac_rx_p2_lite.nstackwords $M passFrameToHub.nstackwords) + 411)
	.globl	receiverP2.nstackwords
	.set	receiverP2.maxcores,mac_rx_p2_lite.maxcores $M passFrameToHub.maxcores $M 1
	.globl	receiverP2.maxcores
	.set	receiverP2.maxtimers,mac_rx_p2_lite.maxtimers $M passFrameToHub.maxtimers $M 0
	.globl	receiverP2.maxtimers
	.set	receiverP2.maxchanends,mac_rx_p2_lite.maxchanends $M passFrameToHub.maxchanends $M 0
	.globl	receiverP2.maxchanends
	.cc_top transmitterP1.function
	.globl	transmitterP1
	.align	4
	.type	transmitterP1,@function
transmitterP1:
.Ltmp60:
	.cfi_startproc
.Lfunc_begin2:
	.loc	1 43 0
.Lxtalabel4:
	entsp 406
.Ltmp61:
	.cfi_def_cfa_offset 1624
.Ltmp62:
	.cfi_offset 15, 0
	.loc	1 42 0 prologue_end
.Ltmp63:
	stw r4, sp[405]
.Ltmp64:
	.cfi_offset 4, -4
	stw r5, sp[404]
.Ltmp65:
	.cfi_offset 5, -8
	stw r6, sp[403]
.Ltmp66:
	.cfi_offset 6, -12
	mov r4, r2
.Ltmp67:
	mov r5, r1
.Ltmp68:
	mov r6, r0
.Ltmp69:
	.loc	1 49 0
	clre
	ldap r11, .Ltmp70
	setv res[r5], r11
	eeu res[r5]
	ldap r11, .Ltmp71
	setv res[r4], r11
	eeu res[r4]
	.loc	1 51 0
	
	.xtabranch .LBB2_1, .LBB2_2
waiteu
.Ltmp70:
.LBB2_1:
.Lxtalabel5:
	ldaw r1, sp[3]
	ldaw r2, sp[2]
	ldc r3, 400
	.loc	1 50 0
	mov r0, r5
	bu .LBB2_3
.Ltmp71:
.LBB2_2:
.Lxtalabel6:
	ldaw r1, sp[3]
	ldaw r2, sp[2]
.Ltmp72:
	ldc r3, 400
	.loc	1 51 0
	mov r0, r4
.Ltmp73:
.LBB2_3:
.Lxtalabel7:
.Lxta.call_labels6:
	bl fetchFrameFromHub
.Ltmp74:
	.loc	1 53 0
	ldw r2, sp[2]
	ldc r0, 400
	.loc	1 53 0
	stw r0, sp[1]
	ldaw r1, sp[3]
	mkmsk r3, 32
	mov r0, r6
.Lxta.call_labels7:
	bl mac_tx_p1_lite
	.loc	1 49 0
	clre
	ldap r11, .Ltmp70
	setv res[r5], r11
	eeu res[r5]
	ldap r11, .Ltmp71
	setv res[r4], r11
	eeu res[r4]
	.loc	1 51 0
	
	.xtabranch .LBB2_1, .LBB2_2
waiteu
.Ltmp75:
.Ltmp76:
	.size	transmitterP1, .Ltmp76-transmitterP1
.Lfunc_end2:
.Ltmp77:
	.cfi_endproc
.Leh_func_end2:

	.align	4
	.cc_bottom transmitterP1.function
	.set	transmitterP1.nstackwords,((fetchFrameFromHub.nstackwords $M mac_tx_p1_lite.nstackwords) + 406)
	.globl	transmitterP1.nstackwords
	.set	transmitterP1.maxcores,fetchFrameFromHub.maxcores $M mac_tx_p1_lite.maxcores $M 1
	.globl	transmitterP1.maxcores
	.set	transmitterP1.maxtimers,fetchFrameFromHub.maxtimers $M mac_tx_p1_lite.maxtimers $M 0
	.globl	transmitterP1.maxtimers
	.set	transmitterP1.maxchanends,fetchFrameFromHub.maxchanends $M mac_tx_p1_lite.maxchanends $M 0
	.globl	transmitterP1.maxchanends
	.cc_top transmitterP2.function
	.globl	transmitterP2
	.align	4
	.type	transmitterP2,@function
transmitterP2:
.Ltmp82:
	.cfi_startproc
.Lfunc_begin3:
	.loc	1 58 0
.Lxtalabel8:
	entsp 406
.Ltmp83:
	.cfi_def_cfa_offset 1624
.Ltmp84:
	.cfi_offset 15, 0
	.loc	1 57 0 prologue_end
.Ltmp85:
	stw r4, sp[405]
.Ltmp86:
	.cfi_offset 4, -4
	stw r5, sp[404]
.Ltmp87:
	.cfi_offset 5, -8
	stw r6, sp[403]
.Ltmp88:
	.cfi_offset 6, -12
	mov r4, r2
.Ltmp89:
	mov r5, r1
.Ltmp90:
	mov r6, r0
.Ltmp91:
	.loc	1 64 0
	clre
	ldap r11, .Ltmp92
	setv res[r5], r11
	eeu res[r5]
	ldap r11, .Ltmp93
	setv res[r4], r11
	eeu res[r4]
	.loc	1 66 0
	
	.xtabranch .LBB3_2, .LBB3_1
waiteu
.Ltmp92:
.LBB3_1:
.Lxtalabel9:
	ldaw r1, sp[3]
	ldaw r2, sp[2]
	ldc r3, 400
	.loc	1 65 0
	mov r0, r5
	bu .LBB3_3
.Ltmp93:
.LBB3_2:
.Lxtalabel10:
	ldaw r1, sp[3]
	ldaw r2, sp[2]
.Ltmp94:
	ldc r3, 400
	.loc	1 66 0
	mov r0, r4
.Ltmp95:
.LBB3_3:
.Lxtalabel11:
.Lxta.call_labels8:
	bl fetchFrameFromHub
.Ltmp96:
	.loc	1 68 0
	ldw r2, sp[2]
	ldc r0, 400
	.loc	1 68 0
	stw r0, sp[1]
	ldaw r1, sp[3]
	mkmsk r3, 32
	mov r0, r6
.Lxta.call_labels9:
	bl mac_tx_p2_lite
	.loc	1 64 0
	clre
	ldap r11, .Ltmp92
	setv res[r5], r11
	eeu res[r5]
	ldap r11, .Ltmp93
	setv res[r4], r11
	eeu res[r4]
	.loc	1 66 0
	
	.xtabranch .LBB3_2, .LBB3_1
waiteu
.Ltmp97:
.Ltmp98:
	.size	transmitterP2, .Ltmp98-transmitterP2
.Lfunc_end3:
.Ltmp99:
	.cfi_endproc
.Leh_func_end3:

	.align	4
	.cc_bottom transmitterP2.function
	.set	transmitterP2.nstackwords,((fetchFrameFromHub.nstackwords $M mac_tx_p2_lite.nstackwords) + 406)
	.globl	transmitterP2.nstackwords
	.set	transmitterP2.maxcores,fetchFrameFromHub.maxcores $M mac_tx_p2_lite.maxcores $M 1
	.globl	transmitterP2.maxcores
	.set	transmitterP2.maxtimers,fetchFrameFromHub.maxtimers $M mac_tx_p2_lite.maxtimers $M 0
	.globl	transmitterP2.maxtimers
	.set	transmitterP2.maxchanends,fetchFrameFromHub.maxchanends $M mac_tx_p2_lite.maxchanends $M 0
	.globl	transmitterP2.maxchanends
	.cc_top ethernetHUB.function
	.section	.cp.rodata.cst4,"aMc",@progbits,4
	.cc_top .LCPI4_0.data
	.align	4
.LCPI4_0:
	.long	600000000
	.cc_bottom .LCPI4_0.data
	.text
	.globl	ethernetHUB
	.align	4
	.type	ethernetHUB,@function
ethernetHUB:
.Ltmp101:
	.cfi_startproc
.Lfunc_begin4:
	.loc	1 77 0
.Lxtalabel12:
	entsp 13
.Ltmp102:
	.cfi_def_cfa_offset 52
.Ltmp103:
	.cfi_offset 15, 0
	stw r0, sp[1]
	stw r1, sp[2]
	stw r2, sp[3]
	stw r3, sp[4]
	ldw r0, sp[14]
	stw r0, sp[5]
	ldw r0, sp[15]
	stw r0, sp[6]
	ldw r0, sp[16]
	stw r0, sp[7]
	ldw r0, sp[17]
	stw r0, sp[8]
	.loc	1 79 0 prologue_end
.Ltmp104:
	getr r1, 2
	getr r0, 2
	setd res[r1], r0
	setd res[r0], r1
	stw r1, sp[10]
	stw r0, sp[12]
	getr r2, 2
	getr r1, 2
	setd res[r2], r1
	setd res[r1], r2
	.loc	1 81 0
.Ltmp105:
	ldaw r0, dp[__timers]
	get r11, id
	ldw r0, r0[r11]
.Ltmp106:
	.loc	1 79 0
	stw r2, sp[9]
	stw r1, sp[11]
	.loc	1 81 0
.Ltmp107:
	setc res[r0], 1
	.loc	1 81 0
.Lxta.endpoint_labels0:
	in r1, res[r0]
.Ltmp108:
	ldw r2, cp[.LCPI4_0]
	.loc	1 81 0
	add r1, r1, r2
.Ltmp109:
	setd res[r0], r1
	setc res[r0], 9
	in r0, res[r0]
.Ltmp110:
	.loc	1 82 0
	ldaw r0, dp[.str]
.Ltmp111:
	ldc r1, 22
.Lxta.call_labels10:
	bl printstr
	.loc	1 83 0
	ldaw r0, dp[.str1]
	ldc r1, 13
.Lxta.call_labels11:
	bl printstr
	ldaw r0, sp[1]
	.loc	1 83 0
	ldaw r1, dp[par.desc.1]
	bl __start_other_cores
.Ltmp112:
.Ltmp113:
	.size	ethernetHUB, .Ltmp113-ethernetHUB
.Lfunc_end4:
.Ltmp114:
	.cfi_endproc
.Leh_func_end4:

	.align	4
	.cc_bottom ethernetHUB.function
	.set	ethernetHUB.nstackwords,((printstr.nstackwords $M (par.extra_stackwords + 1 + ethernetHUB.task.transmitterP1.0.nstackwords + 1 + ethernetHUB.task.receiverP2.1.nstackwords + 1 + ethernetHUB.task.transmitterP2.2.nstackwords + 1 + ethernetHUB.task.receiverP1.3.nstackwords)) + 13)
	.globl	ethernetHUB.nstackwords
	.set	ethernetHUB.maxcores,(0 + ethernetHUB.task.transmitterP1.0.maxcores + ethernetHUB.task.receiverP2.1.maxcores + ethernetHUB.task.transmitterP2.2.maxcores + ethernetHUB.task.receiverP1.3.maxcores) $M printstr.maxcores $M 1
	.globl	ethernetHUB.maxcores
	.set	ethernetHUB.maxtimers,(3 + ethernetHUB.task.transmitterP1.0.maxtimers + ethernetHUB.task.receiverP2.1.maxtimers + ethernetHUB.task.transmitterP2.2.maxtimers + ethernetHUB.task.receiverP1.3.maxtimers) $M printstr.maxtimers $M 0
	.globl	ethernetHUB.maxtimers
	.set	ethernetHUB.maxchanends,(4 + (0 + ethernetHUB.task.transmitterP1.0.maxchanends + ethernetHUB.task.receiverP2.1.maxchanends + ethernetHUB.task.transmitterP2.2.maxchanends + ethernetHUB.task.receiverP1.3.maxchanends)) $M (4 + printstr.maxchanends) $M 4
	.globl	ethernetHUB.maxchanends
	.cc_top ethernetHUB.task.transmitterP1.0.function
	.align	4
	.type	ethernetHUB.task.transmitterP1.0,@function
ethernetHUB.task.transmitterP1.0:
.Ltmp116:
	.cfi_startproc
.Lfunc_begin5:
	.loc	1 87 0
	entsp 1
.Ltmp117:
	.cfi_def_cfa_offset 4
.Ltmp118:
	.cfi_offset 15, 0
	.loc	1 87 0 prologue_end
.Ltmp119:
	ldw r2, r0[1]
	ldw r1, r0[8]
	ldw r0, r0[4]
.Ltmp120:
	.loc	1 87 0
.Lxta.call_labels12:
	bl transmitterP1
.Ltmp121:
.Ltmp122:
	.size	ethernetHUB.task.transmitterP1.0, .Ltmp122-ethernetHUB.task.transmitterP1.0
.Lfunc_end5:
.Ltmp123:
	.cfi_endproc
.Leh_func_end5:

	.align	4
	.cc_bottom ethernetHUB.task.transmitterP1.0.function
	.set	ethernetHUB.task.transmitterP1.0.nstackwords,(transmitterP1.nstackwords + 1)
	.set	ethernetHUB.task.transmitterP1.0.maxcores,transmitterP1.maxcores $M 1
	.set	ethernetHUB.task.transmitterP1.0.maxtimers,transmitterP1.maxtimers $M 0
	.set	ethernetHUB.task.transmitterP1.0.maxchanends,transmitterP1.maxchanends $M 0
	.cc_top ethernetHUB.task.receiverP2.1.function
	.align	4
	.type	ethernetHUB.task.receiverP2.1,@function
ethernetHUB.task.receiverP2.1:
.Ltmp125:
	.cfi_startproc
.Lfunc_begin6:
	.loc	1 88 0
	entsp 1
.Ltmp126:
	.cfi_def_cfa_offset 4
.Ltmp127:
	.cfi_offset 15, 0
	.loc	1 88 0 prologue_end
.Ltmp128:
	ldw r2, r0[2]
	ldw r1, r0[10]
	ldw r0, r0[7]
.Ltmp129:
	.loc	1 88 0
.Lxta.call_labels13:
	bl receiverP2
.Ltmp130:
.Ltmp131:
	.size	ethernetHUB.task.receiverP2.1, .Ltmp131-ethernetHUB.task.receiverP2.1
.Lfunc_end6:
.Ltmp132:
	.cfi_endproc
.Leh_func_end6:

	.align	4
	.cc_bottom ethernetHUB.task.receiverP2.1.function
	.set	ethernetHUB.task.receiverP2.1.nstackwords,(receiverP2.nstackwords + 1)
	.set	ethernetHUB.task.receiverP2.1.maxcores,receiverP2.maxcores $M 1
	.set	ethernetHUB.task.receiverP2.1.maxtimers,receiverP2.maxtimers $M 0
	.set	ethernetHUB.task.receiverP2.1.maxchanends,receiverP2.maxchanends $M 0
	.cc_top ethernetHUB.task.transmitterP2.2.function
	.align	4
	.type	ethernetHUB.task.transmitterP2.2,@function
ethernetHUB.task.transmitterP2.2:
.Ltmp134:
	.cfi_startproc
.Lfunc_begin7:
	.loc	1 90 0
	entsp 1
.Ltmp135:
	.cfi_def_cfa_offset 4
.Ltmp136:
	.cfi_offset 15, 0
	.loc	1 90 0 prologue_end
.Ltmp137:
	ldw r2, r0[3]
	ldw r1, r0[9]
	ldw r0, r0[6]
.Ltmp138:
	.loc	1 90 0
.Lxta.call_labels14:
	bl transmitterP2
.Ltmp139:
.Ltmp140:
	.size	ethernetHUB.task.transmitterP2.2, .Ltmp140-ethernetHUB.task.transmitterP2.2
.Lfunc_end7:
.Ltmp141:
	.cfi_endproc
.Leh_func_end7:

	.align	4
	.cc_bottom ethernetHUB.task.transmitterP2.2.function
	.set	ethernetHUB.task.transmitterP2.2.nstackwords,(transmitterP2.nstackwords + 1)
	.set	ethernetHUB.task.transmitterP2.2.maxcores,transmitterP2.maxcores $M 1
	.set	ethernetHUB.task.transmitterP2.2.maxtimers,transmitterP2.maxtimers $M 0
	.set	ethernetHUB.task.transmitterP2.2.maxchanends,transmitterP2.maxchanends $M 0
	.cc_top ethernetHUB.task.receiverP1.3.function
	.align	4
	.type	ethernetHUB.task.receiverP1.3,@function
ethernetHUB.task.receiverP1.3:
.Ltmp143:
	.cfi_startproc
.Lfunc_begin8:
	.loc	1 91 0
	entsp 1
.Ltmp144:
	.cfi_def_cfa_offset 4
.Ltmp145:
	.cfi_offset 15, 0
	.loc	1 91 0 prologue_end
.Ltmp146:
	ldw r2, r0[0]
	ldw r1, r0[11]
	ldw r0, r0[5]
.Ltmp147:
	.loc	1 91 0
.Lxta.call_labels15:
	bl receiverP1
.Ltmp148:
.Ltmp149:
	.size	ethernetHUB.task.receiverP1.3, .Ltmp149-ethernetHUB.task.receiverP1.3
.Lfunc_end8:
.Ltmp150:
	.cfi_endproc
.Leh_func_end8:

	.align	4
	.cc_bottom ethernetHUB.task.receiverP1.3.function
	.set	ethernetHUB.task.receiverP1.3.nstackwords,(receiverP1.nstackwords + 1)
	.set	ethernetHUB.task.receiverP1.3.maxcores,receiverP1.maxcores $M 1
	.set	ethernetHUB.task.receiverP1.3.maxtimers,receiverP1.maxtimers $M 0
	.set	ethernetHUB.task.receiverP1.3.maxchanends,receiverP1.maxchanends $M 0
	.section	.dp.rodata,"awd",@progbits
	.cc_top .str.data
	.align	4
	.type	.str,@object
	.size .str,22
.str:
.asciiz "Ethernet initialised\n"
	.cc_bottom .str.data
	.cc_top .str1.data
	.align	4
	.type	.str1,@object
	.size .str1,13
.str1:
.asciiz "Hub running\n"
	.cc_bottom .str1.data
	.section	.dp.data,"awd",@progbits
	.cc_top par.desc.1.data
	.align	4
	.type	par.desc.1,@object
	.size par.desc.1,32
par.desc.1:
	.long	ethernetHUB.task.receiverP2.1
	.long	ethernetHUB.task.receiverP1.3.nstackwords
	.long	ethernetHUB.task.transmitterP2.2
	.long	ethernetHUB.task.receiverP2.1.nstackwords
	.long	ethernetHUB.task.transmitterP1.0
	.long	ethernetHUB.task.transmitterP2.2.nstackwords
	.long	0
	.long	ethernetHUB.task.receiverP1.3
	.cc_bottom par.desc.1.data
	.cfi_sections .debug_frame
	.text
.Ltext_end:
	.section	.dp.data,"awd",@progbits
.Ldata_end:
	.text
.Lsection_end1:
	.section	.xtacalltable,"",@progbits
.Lentries_start0:
	.long	.Lentries_end1-.Lentries_start0
	.long	0
	.ascii	 "/home/hstroetgen/Dokumente/programming/app_ethernet_led/app_ethernet_led/.build_lite"
	.byte	0
.cc_top cc_0,.Lxta.call_labels0
	.ascii	 "/home/hstroetgen/Dokumente/programming/app_ethernet_led/module_ethernet_hub/src/hub.xc"
	.byte	0
	.long	16
	.long	.Lxta.call_labels0
.cc_bottom cc_0
.cc_top cc_1,.Lxta.call_labels1
	.ascii	 "/home/hstroetgen/Dokumente/programming/app_ethernet_led/module_ethernet_hub/src/hub.xc"
	.byte	0
	.long	17
	.long	.Lxta.call_labels1
.cc_bottom cc_1
.cc_top cc_2,.Lxta.call_labels2
	.ascii	 "/home/hstroetgen/Dokumente/programming/app_ethernet_led/module_ethernet_hub/src/hub.xc"
	.byte	0
	.long	18
	.long	.Lxta.call_labels2
.cc_bottom cc_2
.cc_top cc_3,.Lxta.call_labels3
	.ascii	 "/home/hstroetgen/Dokumente/programming/app_ethernet_led/module_ethernet_hub/src/hub.xc"
	.byte	0
	.long	34
	.long	.Lxta.call_labels3
.cc_bottom cc_3
.cc_top cc_4,.Lxta.call_labels4
	.ascii	 "/home/hstroetgen/Dokumente/programming/app_ethernet_led/module_ethernet_hub/src/hub.xc"
	.byte	0
	.long	35
	.long	.Lxta.call_labels4
.cc_bottom cc_4
.cc_top cc_5,.Lxta.call_labels5
	.ascii	 "/home/hstroetgen/Dokumente/programming/app_ethernet_led/module_ethernet_hub/src/hub.xc"
	.byte	0
	.long	36
	.long	.Lxta.call_labels5
.cc_bottom cc_5
.cc_top cc_6,.Lxta.call_labels6
	.ascii	 "/home/hstroetgen/Dokumente/programming/app_ethernet_led/module_ethernet_hub/src/hub.xc"
	.byte	0
	.long	51
	.long	.Lxta.call_labels6
.cc_bottom cc_6
.cc_top cc_7,.Lxta.call_labels7
	.ascii	 "/home/hstroetgen/Dokumente/programming/app_ethernet_led/module_ethernet_hub/src/hub.xc"
	.byte	0
	.long	53
	.long	.Lxta.call_labels7
.cc_bottom cc_7
.cc_top cc_8,.Lxta.call_labels8
	.ascii	 "/home/hstroetgen/Dokumente/programming/app_ethernet_led/module_ethernet_hub/src/hub.xc"
	.byte	0
	.long	66
	.long	.Lxta.call_labels8
.cc_bottom cc_8
.cc_top cc_9,.Lxta.call_labels9
	.ascii	 "/home/hstroetgen/Dokumente/programming/app_ethernet_led/module_ethernet_hub/src/hub.xc"
	.byte	0
	.long	68
	.long	.Lxta.call_labels9
.cc_bottom cc_9
.cc_top cc_10,.Lxta.call_labels10
	.ascii	 "/home/hstroetgen/Dokumente/programming/app_ethernet_led/module_ethernet_hub/src/hub.xc"
	.byte	0
	.long	82
	.long	.Lxta.call_labels10
.cc_bottom cc_10
.cc_top cc_11,.Lxta.call_labels11
	.ascii	 "/home/hstroetgen/Dokumente/programming/app_ethernet_led/module_ethernet_hub/src/hub.xc"
	.byte	0
	.long	83
	.long	.Lxta.call_labels11
.cc_bottom cc_11
.cc_top cc_12,.Lxta.call_labels12
	.ascii	 "/home/hstroetgen/Dokumente/programming/app_ethernet_led/module_ethernet_hub/src/hub.xc"
	.byte	0
	.long	87
	.long	.Lxta.call_labels12
.cc_bottom cc_12
.cc_top cc_13,.Lxta.call_labels13
	.ascii	 "/home/hstroetgen/Dokumente/programming/app_ethernet_led/module_ethernet_hub/src/hub.xc"
	.byte	0
	.long	88
	.long	.Lxta.call_labels13
.cc_bottom cc_13
.cc_top cc_14,.Lxta.call_labels14
	.ascii	 "/home/hstroetgen/Dokumente/programming/app_ethernet_led/module_ethernet_hub/src/hub.xc"
	.byte	0
	.long	90
	.long	.Lxta.call_labels14
.cc_bottom cc_14
.cc_top cc_15,.Lxta.call_labels15
	.ascii	 "/home/hstroetgen/Dokumente/programming/app_ethernet_led/module_ethernet_hub/src/hub.xc"
	.byte	0
	.long	91
	.long	.Lxta.call_labels15
.cc_bottom cc_15
.Lentries_end1:
	.section	.xtaendpointtable,"",@progbits
.Lentries_start2:
	.long	.Lentries_end3-.Lentries_start2
	.long	0
	.ascii	 "/home/hstroetgen/Dokumente/programming/app_ethernet_led/app_ethernet_led/.build_lite"
	.byte	0
.cc_top cc_16,.Lxta.endpoint_labels0
	.ascii	 "/home/hstroetgen/Dokumente/programming/app_ethernet_led/module_ethernet_hub/src/hub.xc"
	.byte	0
	.long	81
	.long	.Lxta.endpoint_labels0
.cc_bottom cc_16
.Lentries_end3:
	.section	.xtalabeltable,"",@progbits
.Lentries_start4:
	.long	.Lentries_end5-.Lentries_start4
	.long	0
	.ascii	 "/home/hstroetgen/Dokumente/programming/app_ethernet_led/app_ethernet_led/.build_lite"
	.byte	0
.cc_top cc_17,.Lxtalabel0
	.ascii	 "/home/hstroetgen/Dokumente/programming/app_ethernet_led/module_ethernet_hub/src/hub.xc"
	.byte	0
	.long	7
	.long	10
	.long	.Lxtalabel0
.cc_bottom cc_17
.cc_top cc_18,.Lxtalabel1
	.ascii	 "/home/hstroetgen/Dokumente/programming/app_ethernet_led/module_ethernet_hub/src/hub.xc"
	.byte	0
	.long	11
	.long	20
	.long	.Lxtalabel1
.cc_bottom cc_18
.cc_top cc_19,.Lxtalabel2
	.ascii	 "/home/hstroetgen/Dokumente/programming/app_ethernet_led/module_ethernet_hub/src/hub.xc"
	.byte	0
	.long	25
	.long	28
	.long	.Lxtalabel2
.cc_bottom cc_19
.cc_top cc_20,.Lxtalabel3
	.ascii	 "/home/hstroetgen/Dokumente/programming/app_ethernet_led/module_ethernet_hub/src/hub.xc"
	.byte	0
	.long	29
	.long	38
	.long	.Lxtalabel3
.cc_bottom cc_20
.cc_top cc_21,.Lxtalabel4
	.ascii	 "/home/hstroetgen/Dokumente/programming/app_ethernet_led/module_ethernet_hub/src/hub.xc"
	.byte	0
	.long	43
	.long	47
	.long	.Lxtalabel4
.cc_bottom cc_21
.cc_top cc_22,.Lxtalabel4
	.ascii	 "/home/hstroetgen/Dokumente/programming/app_ethernet_led/module_ethernet_hub/src/hub.xc"
	.byte	0
	.long	48
	.long	50
	.long	.Lxtalabel4
.cc_bottom cc_22
.cc_top cc_23,.Lxtalabel5
	.ascii	 "/home/hstroetgen/Dokumente/programming/app_ethernet_led/module_ethernet_hub/src/hub.xc"
	.byte	0
	.long	51
	.long	51
	.long	.Lxtalabel5
.cc_bottom cc_23
.cc_top cc_24,.Lxtalabel6
	.ascii	 "/home/hstroetgen/Dokumente/programming/app_ethernet_led/module_ethernet_hub/src/hub.xc"
	.byte	0
	.long	52
	.long	52
	.long	.Lxtalabel6
.cc_bottom cc_24
.cc_top cc_25,.Lxtalabel7
	.ascii	 "/home/hstroetgen/Dokumente/programming/app_ethernet_led/module_ethernet_hub/src/hub.xc"
	.byte	0
	.long	52
	.long	52
	.long	.Lxtalabel7
.cc_bottom cc_25
.cc_top cc_26,.Lxtalabel8
	.ascii	 "/home/hstroetgen/Dokumente/programming/app_ethernet_led/module_ethernet_hub/src/hub.xc"
	.byte	0
	.long	58
	.long	62
	.long	.Lxtalabel8
.cc_bottom cc_26
.cc_top cc_27,.Lxtalabel8
	.ascii	 "/home/hstroetgen/Dokumente/programming/app_ethernet_led/module_ethernet_hub/src/hub.xc"
	.byte	0
	.long	63
	.long	65
	.long	.Lxtalabel8
.cc_bottom cc_27
.cc_top cc_28,.Lxtalabel9
	.ascii	 "/home/hstroetgen/Dokumente/programming/app_ethernet_led/module_ethernet_hub/src/hub.xc"
	.byte	0
	.long	66
	.long	66
	.long	.Lxtalabel9
.cc_bottom cc_28
.cc_top cc_29,.Lxtalabel10
	.ascii	 "/home/hstroetgen/Dokumente/programming/app_ethernet_led/module_ethernet_hub/src/hub.xc"
	.byte	0
	.long	67
	.long	67
	.long	.Lxtalabel10
.cc_bottom cc_29
.cc_top cc_30,.Lxtalabel11
	.ascii	 "/home/hstroetgen/Dokumente/programming/app_ethernet_led/module_ethernet_hub/src/hub.xc"
	.byte	0
	.long	67
	.long	67
	.long	.Lxtalabel11
.cc_bottom cc_30
.cc_top cc_31,.Lxtalabel12
	.ascii	 "/home/hstroetgen/Dokumente/programming/app_ethernet_led/module_ethernet_hub/src/hub.xc"
	.byte	0
	.long	77
	.long	93
	.long	.Lxtalabel12
.cc_bottom cc_31
.Lentries_end5:
